target datalayout = "e-m:e-p270:32:32-p271:32:32-p272:64:64-i64:64-i128:128-f80:128-n8:16:32:64-S128"
target triple = "x86_64-pc-linux-gnu"

%struct._packet_info = type { ptr, ptr, i32, i32, %struct.nstime_t, %struct.nstime_t, %struct.nstime_t, i8, ptr, ptr, ptr, ptr, %struct._address, %struct._address, %struct._address, %struct._address, %struct._address, %struct._address, i32, ptr, i8, [3 x i8], %struct.anon, i32, i32, i32, i32, ptr, i8, ptr, ptr, i16, i16, i32, i32, i16, i32, i32, ptr, ptr, ptr, i8, i8, i16, i16, i16, i32, i16, i16, ptr, ptr, ptr, ptr, ptr, i32, i32 }
%struct.nstime_t = type { i64, i32 }
%struct._address = type { i32, i32, ptr, ptr }
%struct.anon = type { i8, [3 x i8] }
%struct.rlc_channel_reassembly_info = type { i16, [100 x %struct.rlc_segment] }
%struct.rlc_segment = type { i32, i16, ptr, i16 }

@.str.364 = private unnamed_addr constant [16 x i8] c"Reassembled SDU\00", align 1

; Function Attrs: alwaysinline nounwind
define internal ptr @memcpy.inline(ptr noalias %0, ptr noalias %1, i64 %2) #13 {
  %4 = alloca ptr, align 8
  %5 = alloca ptr, align 8
  %6 = alloca i64, align 8
  store ptr %0, ptr %4, align 8
  store ptr %1, ptr %5, align 8
  store i64 %2, ptr %6, align 8
  %7 = load ptr, ptr %4, align 8
  %8 = load ptr, ptr %5, align 8
  %9 = load i64, ptr %6, align 8
  %10 = load ptr, ptr %4, align 8
  %11 = call i64 @llvm.objectsize.i64.p0(ptr %10, i1 false, i1 true, i1 true)
  %12 = call ptr @__memcpy_chk(ptr noundef %7, ptr noundef %8, i64 noundef %9, i64 noundef %11) #16
  ret ptr %12
}

; Function Attrs: null_pointer_is_valid sspstrong uwtable
define internal ptr @reassembly_get_reassembled_tvb(ptr noundef %0, ptr noundef %1, ptr noundef %2) #0 {
  %4 = alloca ptr, align 8
  %5 = alloca ptr, align 8
  %6 = alloca ptr, align 8
  %7 = alloca i32, align 4
  %8 = alloca i32, align 4
  %9 = alloca ptr, align 8
  %10 = alloca i32, align 4
  %11 = alloca ptr, align 8
  %12 = alloca ptr, align 8
  %13 = alloca i32, align 4
  store ptr %0, ptr %4, align 8
  store ptr %1, ptr %5, align 8
  store ptr %2, ptr %6, align 8
  call void @llvm.lifetime.start.p0(i64 4, ptr %7) #16
  call void @llvm.lifetime.start.p0(i64 4, ptr %8) #16
  store i32 0, ptr %8, align 4
  call void @llvm.lifetime.start.p0(i64 8, ptr %9) #16
  call void @llvm.lifetime.start.p0(i64 4, ptr %10) #16
  store i32 0, ptr %10, align 4
  call void @llvm.lifetime.start.p0(i64 8, ptr %11) #16
  store i32 0, ptr %7, align 4
  br label %14

14:                                               ; preds = %32, %3
  %15 = load i32, ptr %7, align 4
  %16 = load ptr, ptr %4, align 8
  %17 = getelementptr inbounds nuw %struct.rlc_channel_reassembly_info, ptr %16, i32 0, i32 0
  %18 = load i16, ptr %17, align 8
  %19 = zext i16 %18 to i32
  %20 = icmp slt i32 %15, %19
  br i1 %20, label %21, label %35

21:                                               ; preds = %14
  %22 = load ptr, ptr %4, align 8
  %23 = getelementptr inbounds nuw %struct.rlc_channel_reassembly_info, ptr %22, i32 0, i32 1
  %24 = load i32, ptr %7, align 4
  %25 = sext i32 %24 to i64
  %26 = getelementptr [100 x %struct.rlc_segment], ptr %23, i64 0, i64 %25
  %27 = getelementptr inbounds nuw %struct.rlc_segment, ptr %26, i32 0, i32 3
  %28 = load i16, ptr %27, align 8
  %29 = zext i16 %28 to i32
  %30 = load i32, ptr %8, align 4
  %31 = add i32 %30, %29
  store i32 %31, ptr %8, align 4
  br label %32

32:                                               ; preds = %21
  %33 = load i32, ptr %7, align 4
  %34 = add i32 %33, 1
  store i32 %34, ptr %7, align 4
  br label %14, !llvm.loop !21

35:                                               ; preds = %14
  %36 = load ptr, ptr %6, align 8
  %37 = getelementptr inbounds nuw %struct._packet_info, ptr %36, i32 0, i32 51
  %38 = load ptr, ptr %37, align 8
  %39 = load i32, ptr %8, align 4
  %40 = zext i32 %39 to i64
  %41 = call noalias ptr @wmem_alloc(ptr noundef %38, i64 noundef %40) #17
  store ptr %41, ptr %9, align 8
  store i32 0, ptr %7, align 4
  br label %42

42:                                               ; preds = %76, %35
  %43 = load i32, ptr %7, align 4
  %44 = load ptr, ptr %4, align 8
  %45 = getelementptr inbounds nuw %struct.rlc_channel_reassembly_info, ptr %44, i32 0, i32 0
  %46 = load i16, ptr %45, align 8
  %47 = zext i16 %46 to i32
  %48 = icmp slt i32 %43, %47
  br i1 %48, label %49, label %79

49:                                               ; preds = %42
  call void @llvm.lifetime.start.p0(i64 8, ptr %12) #16
  %50 = load ptr, ptr %4, align 8
  %51 = getelementptr inbounds nuw %struct.rlc_channel_reassembly_info, ptr %50, i32 0, i32 1
  %52 = load i32, ptr %7, align 4
  %53 = sext i32 %52 to i64
  %54 = getelementptr [100 x %struct.rlc_segment], ptr %51, i64 0, i64 %53
  %55 = getelementptr inbounds nuw %struct.rlc_segment, ptr %54, i32 0, i32 2
  %56 = load ptr, ptr %55, align 8
  store ptr %56, ptr %12, align 8
  call void @llvm.lifetime.start.p0(i64 4, ptr %13) #16
  %57 = load ptr, ptr %4, align 8
  %58 = getelementptr inbounds nuw %struct.rlc_channel_reassembly_info, ptr %57, i32 0, i32 1
  %59 = load i32, ptr %7, align 4
  %60 = sext i32 %59 to i64
  %61 = getelementptr [100 x %struct.rlc_segment], ptr %58, i64 0, i64 %60
  %62 = getelementptr inbounds nuw %struct.rlc_segment, ptr %61, i32 0, i32 3
  %63 = load i16, ptr %62, align 8
  %64 = zext i16 %63 to i32
  store i32 %64, ptr %13, align 4
  %65 = load ptr, ptr %9, align 8
  %66 = load i32, ptr %10, align 4
  %67 = zext i32 %66 to i64
  %68 = getelementptr i8, ptr %65, i64 %67
  %69 = load ptr, ptr %12, align 8
  %70 = load i32, ptr %13, align 4
  %71 = sext i32 %70 to i64
  %72 = call ptr @memcpy.inline(ptr noundef %68, ptr noundef %69, i64 noundef %71) #16
  %73 = load i32, ptr %13, align 4
  %74 = load i32, ptr %10, align 4
  %75 = add i32 %74, %73
  store i32 %75, ptr %10, align 4
  call void @llvm.lifetime.end.p0(i64 4, ptr %13) #16
  call void @llvm.lifetime.end.p0(i64 8, ptr %12) #16
  br label %76

76:                                               ; preds = %49
  %77 = load i32, ptr %7, align 4
  %78 = add i32 %77, 1
  store i32 %78, ptr %7, align 4
  br label %42, !llvm.loop !22

79:                                               ; preds = %42
  %80 = load ptr, ptr %5, align 8
  %81 = load ptr, ptr %9, align 8
  %82 = load i32, ptr %10, align 4
  %83 = load i32, ptr %10, align 4
  %84 = call ptr @tvb_new_child_real_data(ptr noundef %80, ptr noundef %81, i32 noundef %82, i32 noundef %83)
  store ptr %84, ptr %11, align 8
  %85 = load ptr, ptr %6, align 8
  %86 = load ptr, ptr %11, align 8
  call void @add_new_data_source(ptr noundef %85, ptr noundef %86, ptr noundef @.str.364)
  %87 = load ptr, ptr %11, align 8
  call void @llvm.lifetime.end.p0(i64 8, ptr %11) #16
  call void @llvm.lifetime.end.p0(i64 4, ptr %10) #16
  call void @llvm.lifetime.end.p0(i64 8, ptr %9) #16
  call void @llvm.lifetime.end.p0(i64 4, ptr %8) #16
  call void @llvm.lifetime.end.p0(i64 4, ptr %7) #16
  ret ptr %87
}