; Function Attrs: null_pointer_is_valid sspstrong uwtable
define internal fastcc noundef ptr @reassembly_get_reassembled_tvb(ptr noundef nonnull readonly captures(none) %0, ptr noundef %1, ptr noundef %2) unnamed_addr #0 {
  %4 = load i16, ptr %0, align 8
  %.not = icmp eq i16 %4, 0
  br i1 %.not, label %._crit_edge, label %.lr.ph

.lr.ph:                                           ; preds = %3
  %5 = getelementptr i8, ptr %0, i64 24
  %wide.trip.count = zext i16 %4 to i64
  br label %6

6:                                                ; preds = %.lr.ph, %6
  %indvars.iv = phi i64 [ 0, %.lr.ph ], [ %indvars.iv.next, %6 ]
  %.02729 = phi i32 [ 0, %.lr.ph ], [ %10, %6 ]
  %.idx = mul nuw nsw i64 %indvars.iv, 24
  %7 = getelementptr i8, ptr %5, i64 %.idx
  %8 = load i16, ptr %7, align 8
  %9 = zext i16 %8 to i32
  %10 = add i32 %.02729, %9
  %indvars.iv.next = add nuw nsw i64 %indvars.iv, 1
  %exitcond.not = icmp eq i64 %indvars.iv.next, %wide.trip.count
  br i1 %exitcond.not, label %._crit_edge, label %6, !llvm.loop !25

._crit_edge:                                      ; preds = %6, %3
  %.027.lcssa = phi i32 [ 0, %3 ], [ %10, %6 ]
  %11 = getelementptr inbounds nuw i8, ptr %2, i64 408
  %12 = load ptr, ptr %11, align 8
  %13 = zext i32 %.027.lcssa to i64
  %14 = tail call noalias ptr @wmem_alloc(ptr noundef %12, i64 noundef %13) #18
  %15 = load i16, ptr %0, align 8
  %.not37 = icmp eq i16 %15, 0
  br i1 %.not37, label %._crit_edge35, label %.lr.ph34

.lr.ph34:                                         ; preds = %._crit_edge
  %16 = getelementptr inbounds nuw i8, ptr %0, i64 8
  %wide.trip.count43 = zext i16 %15 to i64
  br label %17

17:                                               ; preds = %.lr.ph34, %17
  %indvars.iv40 = phi i64 [ 0, %.lr.ph34 ], [ %indvars.iv.next41, %17 ]
  %.02831 = phi i32 [ 0, %.lr.ph34 ], [ %32, %17 ]
  %18 = getelementptr [100 x %struct.rlc_segment], ptr %16, i64 0, i64 %indvars.iv40
  %19 = getelementptr inbounds nuw i8, ptr %18, i64 8
  %20 = load ptr, ptr %19, align 8
  %21 = getelementptr inbounds nuw i8, ptr %18, i64 16
  %22 = load i16, ptr %21, align 8
  %23 = zext i16 %22 to i32
  %24 = zext i32 %.02831 to i64
  %25 = getelementptr i8, ptr %14, i64 %24
  %26 = zext i16 %22 to i64
  %27 = sub nsw i64 %13, %24
  %28 = icmp ugt i32 %.02831, %.027.lcssa
  %29 = select i1 %28, i64 0, i64 %27
  %30 = icmp ne i64 %29, -1
  tail call void @llvm.assume(i1 %30)
  %31 = tail call ptr @__memcpy_chk(ptr noundef %25, ptr noundef %20, i64 noundef range(i64 0, 65536) %26, i64 noundef %29) #17, !alias.scope !26
  %32 = add i32 %.02831, %23
  %indvars.iv.next41 = add nuw nsw i64 %indvars.iv40, 1
  %exitcond44.not = icmp eq i64 %indvars.iv.next41, %wide.trip.count43
  br i1 %exitcond44.not, label %._crit_edge35, label %17, !llvm.loop !30

._crit_edge35:                                    ; preds = %17, %._crit_edge
  %.028.lcssa = phi i32 [ 0, %._crit_edge ], [ %32, %17 ]
  %33 = tail call ptr @tvb_new_child_real_data(ptr noundef %1, ptr noundef %14, i32 noundef %.028.lcssa, i32 noundef %.028.lcssa)
  tail call void @add_new_data_source(ptr noundef %2, ptr noundef %33, ptr noundef nonnull @.str.364)
  ret ptr %33
}